target datalayout = "e-m:e-p270:32:32-p271:32:32-p272:64:64-i64:64-i128:128-f80:128-n8:16:32:64-S128"
target triple = "x86_64-pc-linux-gnu"

%struct.buftag = type { i32, i32, i32, i32, i32 }
%struct.LWLock = type { i16, %struct.pg_atomic_uint32, %struct.proclist_head }
%struct.pg_atomic_uint32 = type { i32 }
%struct.proclist_head = type { i32, i32 }
%struct.BufferDesc = type { %struct.buftag, i32, %struct.pg_atomic_uint32, i32, i32, %struct.LWLock }
%union.BufferDescPadded = type { %struct.BufferDesc, [12 x i8] }

@.str.3 = private unnamed_addr constant [9 x i8] c"bufmgr.c\00", align 1
@.str.9 = private unnamed_addr constant [34 x i8] c"unrecognized buffer lock mode: %d\00", align 1
@__func__.LockBuffer = private unnamed_addr constant [11 x i8] c"LockBuffer\00", align 1
@BufferDescriptors = external global ptr, align 8

; Function Attrs: inlinehint nounwind uwtable
define internal ptr @BufferDescriptorGetContentLock(ptr noundef %0) #3 {
  %2 = alloca ptr, align 8
  store ptr %0, ptr %2, align 8
  %3 = load ptr, ptr %2, align 8
  %4 = getelementptr inbounds nuw %struct.BufferDesc, ptr %3, i32 0, i32 5
  ret ptr %4
}

; Function Attrs: inlinehint nounwind uwtable
define internal ptr @GetBufferDescriptor(i32 noundef %0) #3 {
  %2 = alloca i32, align 4
  store i32 %0, ptr %2, align 4
  %3 = load ptr, ptr @BufferDescriptors, align 8
  %4 = load i32, ptr %2, align 4
  %5 = zext i32 %4 to i64
  %6 = getelementptr inbounds nuw %union.BufferDescPadded, ptr %3, i64 %5
  ret ptr %6
}

; Function Attrs: nounwind uwtable
define dso_local void @LockBuffer(i32 noundef %0, i32 noundef %1) #0 {
  %3 = alloca i32, align 4
  %4 = alloca i32, align 4
  %5 = alloca ptr, align 8
  %6 = alloca i32, align 4
  store i32 %0, ptr %3, align 4
  store i32 %1, ptr %4, align 4
  call void @llvm.lifetime.start.p0(i64 8, ptr %5) #10
  %7 = load i32, ptr %3, align 4
  %8 = icmp slt i32 %7, 0
  br i1 %8, label %9, label %10

9:                                                ; preds = %2
  store i32 1, ptr %6, align 4
  br label %48

10:                                               ; preds = %2
  %11 = load i32, ptr %3, align 4
  %12 = sub i32 %11, 1
  %13 = call ptr @GetBufferDescriptor(i32 noundef %12)
  store ptr %13, ptr %5, align 8
  %14 = load i32, ptr %4, align 4
  %15 = icmp eq i32 %14, 0
  br i1 %15, label %16, label %19

16:                                               ; preds = %10
  %17 = load ptr, ptr %5, align 8
  %18 = call ptr @BufferDescriptorGetContentLock(ptr noundef %17)
  call void @LWLockRelease(ptr noundef %18)
  br label %47

19:                                               ; preds = %10
  %20 = load i32, ptr %4, align 4
  %21 = icmp eq i32 %20, 1
  br i1 %21, label %22, label %26

22:                                               ; preds = %19
  %23 = load ptr, ptr %5, align 8
  %24 = call ptr @BufferDescriptorGetContentLock(ptr noundef %23)
  %25 = call zeroext i1 @LWLockAcquire(ptr noundef %24, i32 noundef 1)
  br label %46

26:                                               ; preds = %19
  %27 = load i32, ptr %4, align 4
  %28 = icmp eq i32 %27, 2
  br i1 %28, label %29, label %33

29:                                               ; preds = %26
  %30 = load ptr, ptr %5, align 8
  %31 = call ptr @BufferDescriptorGetContentLock(ptr noundef %30)
  %32 = call zeroext i1 @LWLockAcquire(ptr noundef %31, i32 noundef 0)
  br label %45

33:                                               ; preds = %26
  br label %34

34:                                               ; preds = %33
  br i1 true, label %35, label %37

35:                                               ; preds = %34
  %36 = call zeroext i1 @errstart_cold(i32 noundef 21, ptr noundef null) #11
  br i1 %36, label %39, label %42

37:                                               ; preds = %34
  %38 = call zeroext i1 @errstart(i32 noundef 21, ptr noundef null)
  br i1 %38, label %39, label %42

39:                                               ; preds = %37, %35
  %40 = load i32, ptr %4, align 4
  %41 = call i32 (ptr, ...) @errmsg_internal(ptr noundef @.str.9, i32 noundef %40)
  call void @errfinish(ptr noundef @.str.3, i32 noundef 5114, ptr noundef @__func__.LockBuffer)
  br label %42

42:                                               ; preds = %39, %37, %35
  unreachable

43:                                               ; No predecessors!
  br label %44

44:                                               ; preds = %43
  br label %45

45:                                               ; preds = %44, %29
  br label %46

46:                                               ; preds = %45, %22
  br label %47

47:                                               ; preds = %46, %16
  store i32 0, ptr %6, align 4
  br label %48

48:                                               ; preds = %47, %9
  call void @llvm.lifetime.end.p0(i64 8, ptr %5) #10
  %49 = load i32, ptr %6, align 4
  switch i32 %49, label %51 [
    i32 0, label %50
    i32 1, label %50
  ]

50:                                               ; preds = %48, %48
  ret void

51:                                               ; preds = %48
  unreachable
}

; Function Attrs: nounwind uwtable
define dso_local void @UnlockReleaseBuffer(i32 noundef %0) #0 {
  %2 = alloca i32, align 4
  store i32 %0, ptr %2, align 4
  %3 = load i32, ptr %2, align 4
  call void @LockBuffer(i32 noundef %3, i32 noundef 0)
  %4 = load i32, ptr %2, align 4
  call void @ReleaseBuffer(i32 noundef %4)
  ret void
}