; Function Attrs: nounwind uwtable
define dso_local void @UnlockReleaseBuffer(i32 noundef %0) local_unnamed_addr #0 {
  %2 = icmp slt i32 %0, 0
  br i1 %2, label %LockBuffer.exit, label %3

3:                                                ; preds = %1
  %4 = add nsw i32 %0, -1
  %5 = load ptr, ptr @BufferDescriptors, align 8
  %6 = zext i32 %4 to i64
  %7 = getelementptr inbounds nuw %union.BufferDescPadded, ptr %5, i64 %6, i32 0, i32 5
  tail call void @LWLockRelease(ptr noundef nonnull %7) #16
  br label %LockBuffer.exit

LockBuffer.exit:                                  ; preds = %1, %3
  tail call void @ReleaseBuffer(i32 noundef %0)
  ret void
}